; ModuleID = 'source-C-CXX/12/807.cpp'
source_filename = "source-C-CXX/12/807.cpp"
target datalayout = "e-m:e-p270:32:32-p271:32:32-p272:64:64-i64:64-f80:128-n8:16:32:64-S128"
target triple = "x86_64-pc-linux-gnu"

%"class.std::ios_base::Init" = type { i8 }
%"class.std::basic_istream" = type { i32 (...)**, i64, %"class.std::basic_ios" }
%"class.std::basic_ios" = type { %"class.std::ios_base", %"class.std::basic_ostream"*, i8, i8, %"class.std::basic_streambuf"*, %"class.std::ctype"*, %"class.std::num_put"*, %"class.std::num_get"* }
%"class.std::ios_base" = type { i32 (...)**, i64, i64, i32, i32, i32, %"struct.std::ios_base::_Callback_list"*, %"struct.std::ios_base::_Words", [8 x %"struct.std::ios_base::_Words"], i32, %"struct.std::ios_base::_Words"*, %"class.std::locale" }
%"struct.std::ios_base::_Callback_list" = type { %"struct.std::ios_base::_Callback_list"*, void (i32, %"class.std::ios_base"*, i32)*, i32, i32 }
%"struct.std::ios_base::_Words" = type { i8*, i64 }
%"class.std::locale" = type { %"class.std::locale::_Impl"* }
%"class.std::locale::_Impl" = type { i32, %"class.std::locale::facet"**, i64, %"class.std::locale::facet"**, i8** }
%"class.std::locale::facet" = type <{ i32 (...)**, i32, [4 x i8] }>
%"class.std::basic_ostream" = type { i32 (...)**, %"class.std::basic_ios" }
%"class.std::basic_streambuf" = type { i32 (...)**, i8*, i8*, i8*, i8*, i8*, i8*, %"class.std::locale" }
%"class.std::ctype" = type <{ %"class.std::locale::facet.base", [4 x i8], %struct.__locale_struct*, i8, [7 x i8], i32*, i32*, i16*, i8, [256 x i8], [256 x i8], i8, [6 x i8] }>
%"class.std::locale::facet.base" = type <{ i32 (...)**, i32 }>
%struct.__locale_struct = type { [13 x %struct.__locale_data*], i16*, i32*, i32*, [13 x i8*] }
%struct.__locale_data = type opaque
%"class.std::num_put" = type { %"class.std::locale::facet.base", [4 x i8] }
%"class.std::num_get" = type { %"class.std::locale::facet.base", [4 x i8] }

@_ZStL8__ioinit = internal global %"class.std::ios_base::Init" zeroinitializer, align 1
@__dso_handle = external hidden global i8
@_ZSt3cin = external global %"class.std::basic_istream", align 8
@_ZSt4cout = external global %"class.std::basic_ostream", align 8
@.str = private unnamed_addr constant [2 x i8] c" \00", align 1
@llvm.global_ctors = appending global [1 x { i32, void ()*, i8* }] [{ i32, void ()*, i8* } { i32 65535, void ()* @_GLOBAL__sub_I_807.cpp, i8* null }]

declare void @_ZNSt8ios_base4InitC1Ev(%"class.std::ios_base::Init"* nonnull align 1 dereferenceable(1)) unnamed_addr #0

; Function Attrs: nounwind
declare void @_ZNSt8ios_base4InitD1Ev(%"class.std::ios_base::Init"* nonnull align 1 dereferenceable(1)) unnamed_addr #1

; Function Attrs: nofree nounwind
declare i32 @__cxa_atexit(void (i8*)*, i8*, i8*) local_unnamed_addr #2

; Function Attrs: mustprogress norecurse sspstrong uwtable
define dso_local i32 @main() local_unnamed_addr #3 {
  %1 = alloca [20000 x i32], align 16
  %2 = alloca [20000 x i32], align 16
  %3 = alloca i32, align 4
  %4 = bitcast [20000 x i32]* %1 to i8*
  call void @llvm.lifetime.start.p0i8(i64 80000, i8* nonnull %4) #6
  %5 = bitcast [20000 x i32]* %2 to i8*
  call void @llvm.lifetime.start.p0i8(i64 80000, i8* nonnull %5) #6
  %6 = bitcast i32* %3 to i8*
  call void @llvm.lifetime.start.p0i8(i64 4, i8* nonnull %6) #6
  store i32 0, i32* %3, align 4, !tbaa !5
  %7 = call nonnull align 8 dereferenceable(16) %"class.std::basic_istream"* @_ZNSirsERi(%"class.std::basic_istream"* nonnull align 8 dereferenceable(16) @_ZSt3cin, i32* nonnull align 4 dereferenceable(4) %3)
  %8 = load i32, i32* %3, align 4, !tbaa !5
  %9 = icmp sgt i32 %8, 0
  br i1 %9, label %15, label %110

10:                                               ; preds = %15
  %11 = icmp sgt i32 %22, 0
  br i1 %11, label %12, label %110

12:                                               ; preds = %10
  %13 = zext i32 %22 to i64
  %14 = zext i32 %22 to i64
  br label %28

15:                                               ; preds = %0, %15
  %16 = phi i64 [ %21, %15 ], [ 0, %0 ]
  %17 = getelementptr inbounds [20000 x i32], [20000 x i32]* %1, i64 0, i64 %16
  %18 = call nonnull align 8 dereferenceable(16) %"class.std::basic_istream"* @_ZNSirsERi(%"class.std::basic_istream"* nonnull align 8 dereferenceable(16) @_ZSt3cin, i32* nonnull align 4 dereferenceable(4) %17)
  %19 = load i32, i32* %17, align 4, !tbaa !5
  %20 = getelementptr inbounds [20000 x i32], [20000 x i32]* %2, i64 0, i64 %16
  store i32 %19, i32* %20, align 4, !tbaa !5
  %21 = add nuw nsw i64 %16, 1
  %22 = load i32, i32* %3, align 4, !tbaa !5
  %23 = sext i32 %22 to i64
  %24 = icmp slt i64 %21, %23
  br i1 %24, label %15, label %10, !llvm.loop !9

25:                                               ; preds = %107, %97, %28
  %26 = add nuw nsw i64 %30, 1
  %27 = icmp eq i64 %33, %14
  br i1 %27, label %110, label %28, !llvm.loop !11

28:                                               ; preds = %12, %25
  %29 = phi i64 [ 0, %12 ], [ %33, %25 ]
  %30 = phi i64 [ 1, %12 ], [ %26, %25 ]
  %31 = xor i64 %29, -1
  %32 = add nsw i64 %31, %14
  %33 = add nuw nsw i64 %29, 1
  %34 = icmp ult i64 %33, %13
  br i1 %34, label %35, label %25

35:                                               ; preds = %28
  %36 = getelementptr inbounds [20000 x i32], [20000 x i32]* %1, i64 0, i64 %29
  %37 = load i32, i32* %36, align 4, !tbaa !5
  %38 = icmp ult i64 %32, 8
  br i1 %38, label %99, label %39

39:                                               ; preds = %35
  %40 = and i64 %32, -8
  %41 = add i64 %30, %40
  %42 = insertelement <4 x i32> poison, i32 %37, i32 0
  %43 = shufflevector <4 x i32> %42, <4 x i32> poison, <4 x i32> zeroinitializer
  %44 = insertelement <4 x i32> poison, i32 %37, i32 0
  %45 = shufflevector <4 x i32> %44, <4 x i32> poison, <4 x i32> zeroinitializer
  br label %46

46:                                               ; preds = %94, %39
  %47 = phi i64 [ 0, %39 ], [ %95, %94 ]
  %48 = add i64 %30, %47
  %49 = getelementptr inbounds [20000 x i32], [20000 x i32]* %2, i64 0, i64 %48
  %50 = bitcast i32* %49 to <4 x i32>*
  %51 = load <4 x i32>, <4 x i32>* %50, align 4, !tbaa !5
  %52 = getelementptr inbounds i32, i32* %49, i64 4
  %53 = bitcast i32* %52 to <4 x i32>*
  %54 = load <4 x i32>, <4 x i32>* %53, align 4, !tbaa !5
  %55 = icmp eq <4 x i32> %43, %51
  %56 = icmp eq <4 x i32> %45, %54
  %57 = extractelement <4 x i1> %55, i32 0
  br i1 %57, label %58, label %59

58:                                               ; preds = %46
  store i32 0, i32* %49, align 4, !tbaa !5
  br label %59

59:                                               ; preds = %58, %46
  %60 = extractelement <4 x i1> %55, i32 1
  br i1 %60, label %61, label %64

61:                                               ; preds = %59
  %62 = add i64 %48, 1
  %63 = getelementptr inbounds [20000 x i32], [20000 x i32]* %2, i64 0, i64 %62
  store i32 0, i32* %63, align 4, !tbaa !5
  br label %64

64:                                               ; preds = %61, %59
  %65 = extractelement <4 x i1> %55, i32 2
  br i1 %65, label %66, label %69

66:                                               ; preds = %64
  %67 = add i64 %48, 2
  %68 = getelementptr inbounds [20000 x i32], [20000 x i32]* %2, i64 0, i64 %67
  store i32 0, i32* %68, align 4, !tbaa !5
  br label %69

69:                                               ; preds = %66, %64
  %70 = extractelement <4 x i1> %55, i32 3
  br i1 %70, label %71, label %74

71:                                               ; preds = %69
  %72 = add i64 %48, 3
  %73 = getelementptr inbounds [20000 x i32], [20000 x i32]* %2, i64 0, i64 %72
  store i32 0, i32* %73, align 4, !tbaa !5
  br label %74

74:                                               ; preds = %71, %69
  %75 = extractelement <4 x i1> %56, i32 0
  br i1 %75, label %76, label %79

76:                                               ; preds = %74
  %77 = add i64 %48, 4
  %78 = getelementptr inbounds [20000 x i32], [20000 x i32]* %2, i64 0, i64 %77
  store i32 0, i32* %78, align 4, !tbaa !5
  br label %79

79:                                               ; preds = %76, %74
  %80 = extractelement <4 x i1> %56, i32 1
  br i1 %80, label %81, label %84

81:                                               ; preds = %79
  %82 = add i64 %48, 5
  %83 = getelementptr inbounds [20000 x i32], [20000 x i32]* %2, i64 0, i64 %82
  store i32 0, i32* %83, align 4, !tbaa !5
  br label %84

84:                                               ; preds = %81, %79
  %85 = extractelement <4 x i1> %56, i32 2
  br i1 %85, label %86, label %89

86:                                               ; preds = %84
  %87 = add i64 %48, 6
  %88 = getelementptr inbounds [20000 x i32], [20000 x i32]* %2, i64 0, i64 %87
  store i32 0, i32* %88, align 4, !tbaa !5
  br label %89

89:                                               ; preds = %86, %84
  %90 = extractelement <4 x i1> %56, i32 3
  br i1 %90, label %91, label %94

91:                                               ; preds = %89
  %92 = add i64 %48, 7
  %93 = getelementptr inbounds [20000 x i32], [20000 x i32]* %2, i64 0, i64 %92
  store i32 0, i32* %93, align 4, !tbaa !5
  br label %94

94:                                               ; preds = %91, %89
  %95 = add nuw i64 %47, 8
  %96 = icmp eq i64 %95, %40
  br i1 %96, label %97, label %46, !llvm.loop !12

97:                                               ; preds = %94
  %98 = icmp eq i64 %32, %40
  br i1 %98, label %25, label %99

99:                                               ; preds = %35, %97
  %100 = phi i64 [ %30, %35 ], [ %41, %97 ]
  br label %101

101:                                              ; preds = %99, %107
  %102 = phi i64 [ %108, %107 ], [ %100, %99 ]
  %103 = getelementptr inbounds [20000 x i32], [20000 x i32]* %2, i64 0, i64 %102
  %104 = load i32, i32* %103, align 4, !tbaa !5
  %105 = icmp eq i32 %37, %104
  br i1 %105, label %106, label %107

106:                                              ; preds = %101
  store i32 0, i32* %103, align 4, !tbaa !5
  br label %107

107:                                              ; preds = %101, %106
  %108 = add nuw nsw i64 %102, 1
  %109 = icmp eq i64 %108, %14
  br i1 %109, label %25, label %101, !llvm.loop !14

110:                                              ; preds = %25, %0, %10
  %111 = getelementptr inbounds [20000 x i32], [20000 x i32]* %2, i64 0, i64 0
  %112 = load i32, i32* %111, align 16, !tbaa !5
  %113 = call nonnull align 8 dereferenceable(8) %"class.std::basic_ostream"* @_ZNSolsEi(%"class.std::basic_ostream"* nonnull align 8 dereferenceable(8) @_ZSt4cout, i32 %112)
  %114 = load i32, i32* %3, align 4, !tbaa !5
  %115 = icmp sgt i32 %114, 1
  br i1 %115, label %116, label %131

116:                                              ; preds = %110, %126
  %117 = phi i32 [ %127, %126 ], [ %114, %110 ]
  %118 = phi i64 [ %128, %126 ], [ 1, %110 ]
  %119 = getelementptr inbounds [20000 x i32], [20000 x i32]* %2, i64 0, i64 %118
  %120 = load i32, i32* %119, align 4, !tbaa !5
  %121 = icmp eq i32 %120, 0
  br i1 %121, label %126, label %122

122:                                              ; preds = %116
  %123 = call nonnull align 8 dereferenceable(8) %"class.std::basic_ostream"* @_ZSt16__ostream_insertIcSt11char_traitsIcEERSt13basic_ostreamIT_T0_ES6_PKS3_l(%"class.std::basic_ostream"* nonnull align 8 dereferenceable(8) @_ZSt4cout, i8* nonnull getelementptr inbounds ([2 x i8], [2 x i8]* @.str, i64 0, i64 0), i64 1)
  %124 = call nonnull align 8 dereferenceable(8) %"class.std::basic_ostream"* @_ZNSolsEi(%"class.std::basic_ostream"* nonnull align 8 dereferenceable(8) @_ZSt4cout, i32 %120)
  %125 = load i32, i32* %3, align 4, !tbaa !5
  br label %126

126:                                              ; preds = %116, %122
  %127 = phi i32 [ %117, %116 ], [ %125, %122 ]
  %128 = add nuw nsw i64 %118, 1
  %129 = sext i32 %127 to i64
  %130 = icmp slt i64 %128, %129
  br i1 %130, label %116, label %131, !llvm.loop !16

131:                                              ; preds = %126, %110
  call void @llvm.lifetime.end.p0i8(i64 4, i8* nonnull %6) #6
  call void @llvm.lifetime.end.p0i8(i64 80000, i8* nonnull %5) #6
  call void @llvm.lifetime.end.p0i8(i64 80000, i8* nonnull %4) #6
  ret i32 0
}

; Function Attrs: argmemonly mustprogress nofree nosync nounwind willreturn
declare void @llvm.lifetime.start.p0i8(i64 immarg, i8* nocapture) #4

declare nonnull align 8 dereferenceable(16) %"class.std::basic_istream"* @_ZNSirsERi(%"class.std::basic_istream"* nonnull align 8 dereferenceable(16), i32* nonnull align 4 dereferenceable(4)) local_unnamed_addr #0

declare nonnull align 8 dereferenceable(8) %"class.std::basic_ostream"* @_ZNSolsEi(%"class.std::basic_ostream"* nonnull align 8 dereferenceable(8), i32) local_unnamed_addr #0

; Function Attrs: argmemonly mustprogress nofree nosync nounwind willreturn
declare void @llvm.lifetime.end.p0i8(i64 immarg, i8* nocapture) #4

declare nonnull align 8 dereferenceable(8) %"class.std::basic_ostream"* @_ZSt16__ostream_insertIcSt11char_traitsIcEERSt13basic_ostreamIT_T0_ES6_PKS3_l(%"class.std::basic_ostream"* nonnull align 8 dereferenceable(8), i8*, i64) local_unnamed_addr #0

; Function Attrs: sspstrong uwtable
define internal void @_GLOBAL__sub_I_807.cpp() #5 section ".text.startup" {
  tail call void @_ZNSt8ios_base4InitC1Ev(%"class.std::ios_base::Init"* nonnull align 1 dereferenceable(1) @_ZStL8__ioinit)
  %1 = tail call i32 @__cxa_atexit(void (i8*)* bitcast (void (%"class.std::ios_base::Init"*)* @_ZNSt8ios_base4InitD1Ev to void (i8*)*), i8* getelementptr inbounds (%"class.std::ios_base::Init", %"class.std::ios_base::Init"* @_ZStL8__ioinit, i64 0, i32 0), i8* nonnull @__dso_handle) #6
  ret void
}


!llvm.module.flags = !{!0, !1, !2, !3}
!llvm.ident = !{!4}

!0 = !{i32 1, !"wchar_size", i32 4}
!1 = !{i32 7, !"PIC Level", i32 2}
!2 = !{i32 7, !"PIE Level", i32 2}
!3 = !{i32 7, !"uwtable", i32 1}
!4 = !{!"clang version 13.0.0"}
!5 = !{!6, !6, i64 0}
!6 = !{!"int", !7, i64 0}
!7 = !{!"omnipotent char", !8, i64 0}
!8 = !{!"Simple C++ TBAA"}
!9 = distinct !{!9, !10}
!10 = !{!"llvm.loop.mustprogress"}
!11 = distinct !{!11, !10}
!12 = distinct !{!12, !10, !13}
!13 = !{!"llvm.loop.isvectorized", i32 1}
!14 = distinct !{!14, !10, !15, !13}
!15 = !{!"llvm.loop.unroll.runtime.disable"}
!16 = distinct !{!16, !10}
